; Function Attrs: mustprogress uwtable
define void @_ZN11colvarvalue4typeERKNS_4TypeE(ptr noundef nonnull align 8 dereferenceable(168) %0, ptr noundef nonnull readonly align 4 captures(none) dereferenceable(4) %1) local_unnamed_addr #1 align 2 personality ptr @__gxx_personality_v0 {
  %3 = alloca double, align 8
  %4 = load i32, ptr %1, align 4, !tbaa !34
  %5 = load i32, ptr %0, align 8, !tbaa !4
  %.not = icmp eq i32 %4, %5
  br i1 %.not, label %31, label %6

6:                                                ; preds = %2
  switch i32 %5, label %_ZN11colvarvalue5resetEv.exit.thread [
    i32 1, label %7
    i32 2, label %9
    i32 3, label %9
    i32 4, label %9
    i32 5, label %11
    i32 6, label %11
    i32 7, label %_ZN11colvarvalue5resetEv.exit
  ]

7:                                                ; preds = %6
  %8 = getelementptr inbounds nuw i8, ptr %0, i64 8
  store double 0.000000e+00, ptr %8, align 8, !tbaa !39
  br label %_ZN11colvarvalue5resetEv.exit.thread

9:                                                ; preds = %6, %6, %6
  %10 = getelementptr inbounds nuw i8, ptr %0, i64 16
  tail call void @llvm.memset.p0.i64(ptr noundef nonnull align 8 dereferenceable(24) %10, i8 0, i64 24, i1 false)
  br label %_ZN11colvarvalue5resetEv.exit.thread

11:                                               ; preds = %6, %6
  %12 = getelementptr inbounds nuw i8, ptr %0, i64 40
  tail call void @llvm.memset.p0.i64(ptr noundef nonnull align 8 dereferenceable(32) %12, i8 0, i64 32, i1 false)
  br label %_ZN11colvarvalue5resetEv.exit.thread

_ZN11colvarvalue5resetEv.exit.thread:             ; preds = %6, %7, %9, %11
  %13 = load i32, ptr %1, align 4
  br label %_ZN12colvarmodule8vector1dIdE5clearEv.exit

_ZN11colvarvalue5resetEv.exit:                    ; preds = %6
  %14 = getelementptr inbounds nuw i8, ptr %0, i64 72
  %15 = getelementptr inbounds nuw i8, ptr %0, i64 80
  %16 = load ptr, ptr %15, align 8, !tbaa !28
  %17 = load ptr, ptr %14, align 8, !tbaa !29
  %18 = ptrtoint ptr %16 to i64
  %19 = ptrtoint ptr %17 to i64
  %20 = sub i64 %18, %19
  %21 = ashr exact i64 %20, 3
  call void @llvm.lifetime.start.p0(i64 8, ptr nonnull %3) #26
  store double 0.000000e+00, ptr %3, align 8, !tbaa !31
  call void @_ZNSt6vectorIdSaIdEE14_M_fill_assignEmRKd(ptr noundef nonnull align 8 dereferenceable(24) %14, i64 noundef %21, ptr noundef nonnull align 8 dereferenceable(8) %3)
  call void @llvm.lifetime.end.p0(i64 8, ptr nonnull %3) #26
  %.pre = load i32, ptr %0, align 8, !tbaa !4
  %22 = icmp ne i32 %.pre, 7
  %23 = load i32, ptr %1, align 4
  %.not4 = icmp eq i32 %23, 7
  %or.cond = select i1 %22, i1 true, i1 %.not4
  br i1 %or.cond, label %_ZN12colvarmodule8vector1dIdE5clearEv.exit, label %24

24:                                               ; preds = %_ZN11colvarvalue5resetEv.exit
  %25 = getelementptr inbounds nuw i8, ptr %0, i64 72
  %26 = load ptr, ptr %25, align 8, !tbaa !29
  %27 = getelementptr inbounds nuw i8, ptr %0, i64 80
  %28 = load ptr, ptr %27, align 8, !tbaa !28
  %.not.i.i.i = icmp eq ptr %28, %26
  br i1 %.not.i.i.i, label %_ZN12colvarmodule8vector1dIdE5clearEv.exit, label %29

29:                                               ; preds = %24
  store ptr %26, ptr %27, align 8, !tbaa !28
  br label %_ZN12colvarmodule8vector1dIdE5clearEv.exit

_ZN12colvarmodule8vector1dIdE5clearEv.exit:       ; preds = %_ZN11colvarvalue5resetEv.exit.thread, %29, %24, %_ZN11colvarvalue5resetEv.exit
  %30 = phi i32 [ %13, %_ZN11colvarvalue5resetEv.exit.thread ], [ %23, %29 ], [ %23, %24 ], [ %23, %_ZN11colvarvalue5resetEv.exit ]
  store i32 %30, ptr %0, align 8, !tbaa !4
  br label %31

31:                                               ; preds = %_ZN12colvarmodule8vector1dIdE5clearEv.exit, %2
  ret void
}